; Function Attrs: mustprogress uwtable
define noundef zeroext i1 @_ZN18OpenImageIO_v2_6_010Filesystem6removeENS_17basic_string_viewIcSt11char_traitsIcEEERNSt7__cxx1112basic_stringIcS3_SaIcEEE(ptr nocapture noundef readonly %path, ptr noundef nonnull align 8 dereferenceable(32) %err) local_unnamed_addr #5 {
entry:
  %ec = alloca %"class.std::error_code", align 8
  %ref.tmp = alloca %"class.std::filesystem::__cxx11::path", align 8
  %ref.tmp1 = alloca %"class.std::__cxx11::basic_string", align 8
  store i32 0, ptr %ec, align 8
  %_M_cat.i = getelementptr inbounds i8, ptr %ec, i64 8
  %call.i = tail call noundef nonnull align 8 dereferenceable(8) ptr @_ZNSt3_V215system_categoryEv() #35
  store ptr %call.i, ptr %_M_cat.i, align 8
  %0 = load ptr, ptr %path, align 8
  %m_len.i.i = getelementptr inbounds i8, ptr %path, i64 8
  %1 = load i64, ptr %m_len.i.i, align 8
  %add.ptr.i.i = getelementptr inbounds i8, ptr %0, i64 %1
  call void @_ZNSt10filesystem7__cxx114pathC2IPKcS1_EET_S5_NS1_6formatE(ptr noundef nonnull align 8 dereferenceable(40) %ref.tmp, ptr noundef %0, ptr noundef %add.ptr.i.i, i8 noundef zeroext 2)
  %call = call noundef zeroext i1 @_ZNSt10filesystem6removeERKNS_7__cxx114pathERSt10error_code(ptr noundef nonnull align 8 dereferenceable(40) %ref.tmp, ptr noundef nonnull align 8 dereferenceable(16) %ec) #32
  %_M_cmpts.i = getelementptr inbounds i8, ptr %ref.tmp, i64 32
  %2 = load ptr, ptr %_M_cmpts.i, align 8
  %cmp.not.i.i.i = icmp eq ptr %2, null
  br i1 %cmp.not.i.i.i, label %_ZNSt10filesystem7__cxx114pathD2Ev.exit, label %if.then.i.i.i

if.then.i.i.i:                                    ; preds = %entry
  call void @_ZNKSt10filesystem7__cxx114path5_List13_Impl_deleterclEPNS2_5_ImplE(ptr noundef nonnull align 1 dereferenceable(1) %_M_cmpts.i, ptr noundef nonnull %2) #32
  br label %_ZNSt10filesystem7__cxx114pathD2Ev.exit

_ZNSt10filesystem7__cxx114pathD2Ev.exit:          ; preds = %entry, %if.then.i.i.i
  store ptr null, ptr %_M_cmpts.i, align 8
  call void @_ZNSt7__cxx1112basic_stringIcSt11char_traitsIcESaIcEED1Ev(ptr noundef nonnull align 8 dereferenceable(32) %ref.tmp) #32
  br i1 %call, label %if.then, label %if.else

if.then:                                          ; preds = %_ZNSt10filesystem7__cxx114pathD2Ev.exit
  call void @_ZNSt7__cxx1112basic_stringIcSt11char_traitsIcESaIcEE5clearEv(ptr noundef nonnull align 8 dereferenceable(32) %err) #32
  br label %if.end

if.else:                                          ; preds = %_ZNSt10filesystem7__cxx114pathD2Ev.exit
  %3 = load ptr, ptr %_M_cat.i, align 8, !noalias !128
  %4 = load i32, ptr %ec, align 8, !noalias !128
  %vtable.i = load ptr, ptr %3, align 8, !noalias !128
  %vfn.i = getelementptr inbounds i8, ptr %vtable.i, i64 32
  %5 = load ptr, ptr %vfn.i, align 8, !noalias !128
  call void %5(ptr nonnull sret(%"class.std::__cxx11::basic_string") align 8 %ref.tmp1, ptr noundef nonnull align 8 dereferenceable(8) %3, i32 noundef %4)
  %call2 = call noundef nonnull align 8 dereferenceable(32) ptr @_ZNSt7__cxx1112basic_stringIcSt11char_traitsIcESaIcEEaSEOS4_(ptr noundef nonnull align 8 dereferenceable(32) %err, ptr noundef nonnull align 8 dereferenceable(32) %ref.tmp1) #32
  call void @_ZNSt7__cxx1112basic_stringIcSt11char_traitsIcESaIcEED1Ev(ptr noundef nonnull align 8 dereferenceable(32) %ref.tmp1) #32
  br label %if.end

if.end:                                           ; preds = %if.else, %if.then
  ret i1 %call
}